; Function Attrs: mustprogress uwtable
define void @_ZNK19OpenColorIO_v2_4dev12CPUProcessor8applyRGBEPf(ptr nocapture noundef nonnull readonly align 8 dereferenceable(8) %this, ptr nocapture noundef %pixel) local_unnamed_addr #3 align 2 {
entry:
  %v.i = alloca [4 x float], align 16
  %0 = load ptr, ptr %this, align 8
  call void @llvm.lifetime.start.p0(i64 16, ptr nonnull %v.i)
  %1 = load <2 x float>, ptr %pixel, align 4
  store <2 x float> %1, ptr %v.i, align 16
  %arrayinit.element3.i = getelementptr inbounds i8, ptr %v.i, i64 8
  %arrayidx4.i = getelementptr inbounds i8, ptr %pixel, i64 8
  %2 = load float, ptr %arrayidx4.i, align 4
  store float %2, ptr %arrayinit.element3.i, align 8
  %arrayinit.element5.i = getelementptr inbounds i8, ptr %v.i, i64 12
  store float 0.000000e+00, ptr %arrayinit.element5.i, align 4
  %3 = load ptr, ptr %0, align 8
  %vtable.i = load ptr, ptr %3, align 8
  %vfn.i = getelementptr inbounds i8, ptr %vtable.i, i64 16
  %4 = load ptr, ptr %vfn.i, align 8
  call void %4(ptr noundef nonnull align 8 dereferenceable(8) %3, ptr noundef nonnull %v.i, ptr noundef nonnull %v.i, i64 noundef 1)
  %m_cpuOps.i = getelementptr inbounds i8, ptr %0, i64 16
  %_M_finish.i.i = getelementptr inbounds i8, ptr %0, i64 24
  %5 = load ptr, ptr %_M_finish.i.i, align 8
  %6 = load ptr, ptr %m_cpuOps.i, align 8
  %cmp8.not.i = icmp eq ptr %5, %6
  br i1 %cmp8.not.i, label %_ZNK19OpenColorIO_v2_4dev12CPUProcessor4Impl8applyRGBEPf.exit, label %for.body.preheader.i

for.body.preheader.i:                             ; preds = %entry
  %sub.ptr.lhs.cast.i.i = ptrtoint ptr %5 to i64
  %sub.ptr.rhs.cast.i.i = ptrtoint ptr %6 to i64
  %sub.ptr.sub.i.i = sub i64 %sub.ptr.lhs.cast.i.i, %sub.ptr.rhs.cast.i.i
  %sub.ptr.div.i.i = ashr exact i64 %sub.ptr.sub.i.i, 4
  %umax.i = call i64 @llvm.umax.i64(i64 %sub.ptr.div.i.i, i64 1)
  br label %for.body.i

for.body.i:                                       ; preds = %for.body.i, %for.body.preheader.i
  %i.09.i = phi i64 [ %inc.i, %for.body.i ], [ 0, %for.body.preheader.i ]
  %7 = load ptr, ptr %m_cpuOps.i, align 8
  %add.ptr.i.i = getelementptr inbounds %"class.std::shared_ptr", ptr %7, i64 %i.09.i
  %8 = load ptr, ptr %add.ptr.i.i, align 8
  %vtable13.i = load ptr, ptr %8, align 8
  %vfn14.i = getelementptr inbounds i8, ptr %vtable13.i, i64 16
  %9 = load ptr, ptr %vfn14.i, align 8
  call void %9(ptr noundef nonnull align 8 dereferenceable(8) %8, ptr noundef nonnull %v.i, ptr noundef nonnull %v.i, i64 noundef 1)
  %inc.i = add nuw i64 %i.09.i, 1
  %exitcond.not.i = icmp eq i64 %inc.i, %umax.i
  br i1 %exitcond.not.i, label %_ZNK19OpenColorIO_v2_4dev12CPUProcessor4Impl8applyRGBEPf.exit, label %for.body.i, !llvm.loop !141

_ZNK19OpenColorIO_v2_4dev12CPUProcessor4Impl8applyRGBEPf.exit: ; preds = %for.body.i, %entry
  %m_outBitDepthOp.i = getelementptr inbounds i8, ptr %0, i64 40
  %10 = load ptr, ptr %m_outBitDepthOp.i, align 8
  %vtable18.i = load ptr, ptr %10, align 8
  %vfn19.i = getelementptr inbounds i8, ptr %vtable18.i, i64 16
  %11 = load ptr, ptr %vfn19.i, align 8
  call void %11(ptr noundef nonnull align 8 dereferenceable(8) %10, ptr noundef nonnull %v.i, ptr noundef nonnull %v.i, i64 noundef 1)
  %12 = load <2 x float>, ptr %v.i, align 16
  store <2 x float> %12, ptr %pixel, align 4
  %13 = load float, ptr %arrayinit.element3.i, align 8
  store float %13, ptr %arrayidx4.i, align 4
  call void @llvm.lifetime.end.p0(i64 16, ptr nonnull %v.i)
  ret void
}